; Function Attrs: mustprogress uwtable
define dso_local void @_ZN7testing8internal47RegisterTypeParameterizedTestSuiteInstantiationEPKc(ptr noundef %0) local_unnamed_addr #3 personality ptr @__gxx_personality_v0 {
  %2 = load atomic i8, ptr @_ZGVZN7testing8UnitTest11GetInstanceEvE8instance acquire, align 8
  %3 = icmp eq i8 %2, 0
  br i1 %3, label %4, label %_ZN7testing8internal15GetUnitTestImplEv.exit, !prof !47

4:                                                ; preds = %1
  %5 = tail call i32 @__cxa_guard_acquire(ptr nonnull @_ZGVZN7testing8UnitTest11GetInstanceEvE8instance) #58
  %.not.i.i = icmp eq i32 %5, 0
  br i1 %.not.i.i, label %_ZN7testing8internal15GetUnitTestImplEv.exit, label %6

6:                                                ; preds = %4
  invoke void @_ZN7testing8UnitTestC2Ev(ptr noundef nonnull align 8 dereferenceable(72) @_ZZN7testing8UnitTest11GetInstanceEvE8instance)
          to label %7 unwind label %9

7:                                                ; preds = %6
  %8 = tail call i32 @__cxa_atexit(ptr nonnull @_ZN7testing8UnitTestD2Ev, ptr nonnull @_ZZN7testing8UnitTest11GetInstanceEvE8instance, ptr nonnull @__dso_handle) #58
  tail call void @__cxa_guard_release(ptr nonnull @_ZGVZN7testing8UnitTest11GetInstanceEvE8instance) #58
  br label %_ZN7testing8internal15GetUnitTestImplEv.exit

9:                                                ; preds = %6
  %10 = landingpad { ptr, i32 }
          cleanup
  tail call void @__cxa_guard_abort(ptr nonnull @_ZGVZN7testing8UnitTest11GetInstanceEvE8instance) #58
  resume { ptr, i32 } %10

_ZN7testing8internal15GetUnitTestImplEv.exit:     ; preds = %1, %4, %7
  %11 = load ptr, ptr getelementptr inbounds nuw (i8, ptr @_ZZN7testing8UnitTest11GetInstanceEvE8instance, i64 64), align 8, !tbaa !48
  %12 = getelementptr inbounds nuw i8, ptr %11, i64 256
  tail call void @_ZN7testing8internal34TypeParameterizedTestSuiteRegistry21RegisterInstantiationEPKc(ptr noundef nonnull align 8 dereferenceable(48) %12, ptr noundef %0)
  ret void
}